ARM GAS  C:\Users\fskyy\AppData\Local\Temp\ccRSmKTT.s 			page 1


   1              		.syntax unified
   2              		.cpu cortex-m0
   3              		.fpu softvfp
   4              		.eabi_attribute 20, 1
   5              		.eabi_attribute 21, 1
   6              		.eabi_attribute 23, 3
   7              		.eabi_attribute 24, 1
   8              		.eabi_attribute 25, 1
   9              		.eabi_attribute 26, 1
  10              		.eabi_attribute 30, 1
  11              		.eabi_attribute 34, 0
  12              		.eabi_attribute 18, 4
  13              		.thumb
  14              		.syntax unified
  15              		.file	"getState.c"
  16              		.text
  17              	.Ltext0:
  18              		.cfi_sections	.debug_frame
  19              		.section	.text.getState,"ax",%progbits
  20              		.align	2
  21              		.global	getState
  22              		.code	16
  23              		.thumb_func
  24              		.type	getState, %function
  25              	getState:
  26              	.LFB34:
  27              		.file 1 "getState.c"
   1:getState.c    **** /* ========================================
   2:getState.c    ****  *
   3:getState.c    ****  * Copyright YOUR COMPANY, THE YEAR
   4:getState.c    ****  * All Rights Reserved
   5:getState.c    ****  * UNPUBLISHED, LICENSED SOFTWARE.
   6:getState.c    ****  *
   7:getState.c    ****  * CONFIDENTIAL AND PROPRIETARY INFORMATION
   8:getState.c    ****  * WHICH IS THE PROPERTY OF your company.
   9:getState.c    ****  *
  10:getState.c    ****  * ========================================
  11:getState.c    **** */
  12:getState.c    **** 
  13:getState.c    **** /* [] END OF FILE */
  14:getState.c    **** #include "FSM.h"
  15:getState.c    **** #include "Port.h"
  16:getState.c    **** #include "project.h"
  17:getState.c    **** 
  18:getState.c    **** uint8_t boardState = UINIT;
  19:getState.c    **** 
  20:getState.c    **** /*
  21:getState.c    ****     Determines the current state of the board in the FSM used for periodic checking of current
  22:getState.c    ****     and battery life values
  23:getState.c    ****     
  24:getState.c    ****     Input/s: N/A
  25:getState.c    ****     Output/s: 
  26:getState.c    ****         - boardState: State of board
  27:getState.c    **** */
  28:getState.c    **** uint8_t getState(){
  28              		.loc 1 28 0
  29              		.cfi_startproc
ARM GAS  C:\Users\fskyy\AppData\Local\Temp\ccRSmKTT.s 			page 2


  30              		@ args = 0, pretend = 0, frame = 0
  31              		@ frame_needed = 0, uses_anonymous_args = 0
  32              		@ link register save eliminated.
  29:getState.c    ****     return boardState;   
  33              		.loc 1 29 0
  34 0000 014B     		ldr	r3, .L2
  35 0002 1878     		ldrb	r0, [r3]
  30:getState.c    **** }
  36              		.loc 1 30 0
  37              		@ sp needed
  38 0004 7047     		bx	lr
  39              	.L3:
  40 0006 C046     		.align	2
  41              	.L2:
  42 0008 00000000 		.word	.LANCHOR0
  43              		.cfi_endproc
  44              	.LFE34:
  45              		.size	getState, .-getState
  46              		.section	.text.setState,"ax",%progbits
  47              		.align	2
  48              		.global	setState
  49              		.code	16
  50              		.thumb_func
  51              		.type	setState, %function
  52              	setState:
  53              	.LFB35:
  31:getState.c    **** 
  32:getState.c    **** /*
  33:getState.c    ****     Sets the state of the board to the newState provided, 
  34:getState.c    ****     
  35:getState.c    ****     Input/s:
  36:getState.c    ****         - newState: Desired state for board
  37:getState.c    ****     Output/s: N/A
  38:getState.c    **** */
  39:getState.c    **** void setState(uint8_t newState){
  54              		.loc 1 39 0
  55              		.cfi_startproc
  56              		@ args = 0, pretend = 0, frame = 0
  57              		@ frame_needed = 0, uses_anonymous_args = 0
  58              		@ link register save eliminated.
  59              	.LVL0:
  40:getState.c    ****     boardState = newState;
  60              		.loc 1 40 0
  61 0000 014B     		ldr	r3, .L5
  62 0002 1870     		strb	r0, [r3]
  41:getState.c    **** }
  63              		.loc 1 41 0
  64              		@ sp needed
  65 0004 7047     		bx	lr
  66              	.L6:
  67 0006 C046     		.align	2
  68              	.L5:
  69 0008 00000000 		.word	.LANCHOR0
  70              		.cfi_endproc
  71              	.LFE35:
  72              		.size	setState, .-setState
  73              		.section	.text.boardReset,"ax",%progbits
ARM GAS  C:\Users\fskyy\AppData\Local\Temp\ccRSmKTT.s 			page 3


  74              		.align	2
  75              		.global	boardReset
  76              		.code	16
  77              		.thumb_func
  78              		.type	boardReset, %function
  79              	boardReset:
  80              	.LFB36:
  42:getState.c    **** 
  43:getState.c    **** void boardReset(){
  81              		.loc 1 43 0
  82              		.cfi_startproc
  83              		@ args = 0, pretend = 0, frame = 0
  84              		@ frame_needed = 0, uses_anonymous_args = 0
  85              		@ link register save eliminated.
  44:getState.c    ****     //TODO: Determine what reset behavior would look like   
  45:getState.c    **** }...
  86              		.loc 1 45 0
  87              		@ sp needed
  88 0000 7047     		bx	lr
  89              		.cfi_endproc
  90              	.LFE36:
  91              		.size	boardReset, .-boardReset
  92              		.global	boardState
  93 0002 C046     		.data
  94              		.set	.LANCHOR0,. + 0
  95              		.type	boardState, %object
  96              		.size	boardState, 1
  97              	boardState:
  98 0000 FF       		.byte	-1
  99              		.text
 100              	.Letext0:
 101              		.file 2 "c:\\program files (x86)\\cypress\\psoc creator\\4.4\\psoc creator\\import\\gnu\\arm\\5.4.
 102              		.file 3 "c:\\program files (x86)\\cypress\\psoc creator\\4.4\\psoc creator\\import\\gnu\\arm\\5.4.